#include <math.h>
#include <stdio.h>
#include <stdlib.h>
#include <string.h>

int main()
{
    int n,i,sum=0,a,b,c,d;
	scanf("%d",&n);
	for(i=1;i<=n;i++)
	{
		a=i;
		b=i%10;
		i=i/10;
		c=i%10;
		i=i/10;
		d=i%10;
		if((a%7!=0)&&(b!=7)&&(c!=7)&&(d!=7))
		{
			sum+=a*a;
		}
		i=a;
	}
	printf("%d",sum);
}

