; ModuleID = '30/184.c'
source_filename = "30/184.c"
target datalayout = "e-m:e-p270:32:32-p271:32:32-p272:64:64-i64:64-f80:128-n8:16:32:64-S128"
target triple = "x86_64-pc-linux-gnu"

@.str = private unnamed_addr constant [3 x i8] c"%d\00", align 1

; Function Attrs: noinline nounwind uwtable
define dso_local i32 @main() #0 {
  %1 = alloca i32, align 4
  %2 = alloca i32, align 4
  %3 = alloca i32, align 4
  %4 = alloca i32, align 4
  %5 = alloca i32, align 4
  %6 = alloca i32, align 4
  %7 = alloca i32, align 4
  %8 = alloca i32, align 4
  store i32 0, i32* %1, align 4
  store i32 0, i32* %4, align 4
  %9 = call i32 (i8*, ...) @__isoc99_scanf(i8* getelementptr inbounds ([3 x i8], [3 x i8]* @.str, i64 0, i64 0), i32* %2)
  store i32 1, i32* %3, align 4
  br label %10

10:                                               ; preds = %46, %0
  %11 = load i32, i32* %3, align 4
  %12 = load i32, i32* %2, align 4
  %13 = icmp sle i32 %11, %12
  br i1 %13, label %14, label %49

14:                                               ; preds = %10
  %15 = load i32, i32* %3, align 4
  store i32 %15, i32* %5, align 4
  %16 = load i32, i32* %3, align 4
  %17 = srem i32 %16, 10
  store i32 %17, i32* %6, align 4
  %18 = load i32, i32* %3, align 4
  %19 = sdiv i32 %18, 10
  store i32 %19, i32* %3, align 4
  %20 = load i32, i32* %3, align 4
  %21 = srem i32 %20, 10
  store i32 %21, i32* %7, align 4
  %22 = load i32, i32* %3, align 4
  %23 = sdiv i32 %22, 10
  store i32 %23, i32* %3, align 4
  %24 = load i32, i32* %3, align 4
  %25 = srem i32 %24, 10
  store i32 %25, i32* %8, align 4
  %26 = load i32, i32* %5, align 4
  %27 = srem i32 %26, 7
  %28 = icmp ne i32 %27, 0
  br i1 %28, label %29, label %44

29:                                               ; preds = %14
  %30 = load i32, i32* %6, align 4
  %31 = icmp ne i32 %30, 7
  br i1 %31, label %32, label %44

32:                                               ; preds = %29
  %33 = load i32, i32* %7, align 4
  %34 = icmp ne i32 %33, 7
  br i1 %34, label %35, label %44

35:                                               ; preds = %32
  %36 = load i32, i32* %8, align 4
  %37 = icmp ne i32 %36, 7
  br i1 %37, label %38, label %44

38:                                               ; preds = %35
  %39 = load i32, i32* %5, align 4
  %40 = load i32, i32* %5, align 4
  %41 = mul nsw i32 %39, %40
  %42 = load i32, i32* %4, align 4
  %43 = add nsw i32 %42, %41
  store i32 %43, i32* %4, align 4
  br label %44

44:                                               ; preds = %38, %35, %32, %29, %14
  %45 = load i32, i32* %5, align 4
  store i32 %45, i32* %3, align 4
  br label %46

46:                                               ; preds = %44
  %47 = load i32, i32* %3, align 4
  %48 = add nsw i32 %47, 1
  store i32 %48, i32* %3, align 4
  br label %10

49:                                               ; preds = %10
  %50 = load i32, i32* %4, align 4
  %51 = call i32 (i8*, ...) @printf(i8* getelementptr inbounds ([3 x i8], [3 x i8]* @.str, i64 0, i64 0), i32 %50)
  %52 = load i32, i32* %1, align 4
  ret i32 %52
}

declare dso_local i32 @__isoc99_scanf(i8*, ...) #1

declare dso_local i32 @printf(i8*, ...) #1


!llvm.module.flags = !{!0}
!llvm.ident = !{!1}

!0 = !{i32 1, !"wchar_size", i32 4}
!1 = !{!"clang version 10.0.0-4ubuntu1 "}
